target datalayout = "e-m:e-p270:32:32-p271:32:32-p272:64:64-i64:64-i128:128-f80:128-n8:16:32:64-S128"
target triple = "x86_64-unknown-linux-gnu"

%"class.std::__cxx11::basic_string" = type { %"struct.std::__cxx11::basic_string<char>::_Alloc_hider", i64, %union.anon }
%"struct.std::__cxx11::basic_string<char>::_Alloc_hider" = type { ptr }
%union.anon = type { i64, [8 x i8] }
%"struct.arrow_vendored::date::tzdb" = type { %"class.std::__cxx11::basic_string", %"class.std::vector", %"class.std::vector.3", ptr }
%"class.std::vector" = type { %"struct.std::_Vector_base" }
%"struct.std::_Vector_base" = type { %"struct.std::_Vector_base<arrow_vendored::date::time_zone, std::allocator<arrow_vendored::date::time_zone>>::_Vector_impl" }
%"struct.std::_Vector_base<arrow_vendored::date::time_zone, std::allocator<arrow_vendored::date::time_zone>>::_Vector_impl" = type { %"struct.std::_Vector_base<arrow_vendored::date::time_zone, std::allocator<arrow_vendored::date::time_zone>>::_Vector_impl_data" }
%"struct.std::_Vector_base<arrow_vendored::date::time_zone, std::allocator<arrow_vendored::date::time_zone>>::_Vector_impl_data" = type { ptr, ptr, ptr }
%"class.std::vector.3" = type { %"struct.std::_Vector_base.4" }
%"struct.std::_Vector_base.4" = type { %"struct.std::_Vector_base<arrow_vendored::date::leap_second, std::allocator<arrow_vendored::date::leap_second>>::_Vector_impl" }
%"struct.std::_Vector_base<arrow_vendored::date::leap_second, std::allocator<arrow_vendored::date::leap_second>>::_Vector_impl" = type { %"struct.std::_Vector_base<arrow_vendored::date::leap_second, std::allocator<arrow_vendored::date::leap_second>>::_Vector_impl_data" }
%"struct.std::_Vector_base<arrow_vendored::date::leap_second, std::allocator<arrow_vendored::date::leap_second>>::_Vector_impl_data" = type { ptr, ptr, ptr }
%"class.arrow_vendored::date::tzdb_list::const_iterator" = type { ptr }

; Function Attrs: mustprogress nounwind uwtable
define linkonce_odr void @_ZNSt15__new_allocatorIN14arrow_vendored4date11leap_secondEED2Ev(ptr noundef nonnull align 1 dereferenceable(1) %this) unnamed_addr #4 comdat align 2 {
entry:
  %this.addr = alloca ptr, align 8
  store ptr %this, ptr %this.addr, align 8
  ret void
}

; Function Attrs: mustprogress nounwind uwtable
define linkonce_odr void @_ZNSt15__new_allocatorIN14arrow_vendored4date11leap_secondEE10deallocateEPS2_m(ptr noundef nonnull align 1 dereferenceable(1) %this, ptr noundef %__p, i64 noundef %__n) #4 comdat align 2 {
entry:
  %this.addr = alloca ptr, align 8
  %__p.addr = alloca ptr, align 8
  %__n.addr = alloca i64, align 8
  store ptr %this, ptr %this.addr, align 8
  store ptr %__p, ptr %__p.addr, align 8
  store i64 %__n, ptr %__n.addr, align 8
  %0 = load ptr, ptr %__p.addr, align 8
  call void @_ZdlPv(ptr noundef %0) #17
  ret void
}

; Function Attrs: mustprogress nounwind uwtable
define linkonce_odr void @_ZNSaIN14arrow_vendored4date11leap_secondEED2Ev(ptr noundef nonnull align 1 dereferenceable(1) %this) unnamed_addr #4 comdat align 2 {
entry:
  %this.addr = alloca ptr, align 8
  store ptr %this, ptr %this.addr, align 8
  %this1 = load ptr, ptr %this.addr, align 8
  call void @_ZNSt15__new_allocatorIN14arrow_vendored4date11leap_secondEED2Ev(ptr noundef nonnull align 1 dereferenceable(1) %this1) #3
  ret void
}

; Function Attrs: mustprogress uwtable
define linkonce_odr void @_ZNSt16allocator_traitsISaIN14arrow_vendored4date11leap_secondEEE10deallocateERS3_PS2_m(ptr noundef nonnull align 1 dereferenceable(1) %__a, ptr noundef %__p, i64 noundef %__n) #7 comdat align 2 {
entry:
  %__a.addr = alloca ptr, align 8
  %__p.addr = alloca ptr, align 8
  %__n.addr = alloca i64, align 8
  store ptr %__a, ptr %__a.addr, align 8
  store ptr %__p, ptr %__p.addr, align 8
  store i64 %__n, ptr %__n.addr, align 8
  %0 = load ptr, ptr %__a.addr, align 8
  %1 = load ptr, ptr %__p.addr, align 8
  %2 = load i64, ptr %__n.addr, align 8
  call void @_ZNSt15__new_allocatorIN14arrow_vendored4date11leap_secondEE10deallocateEPS2_m(ptr noundef nonnull align 1 dereferenceable(1) %0, ptr noundef %1, i64 noundef %2)
  ret void
}

; Function Attrs: mustprogress nounwind uwtable
define linkonce_odr void @_ZNSt12_Destroy_auxILb1EE9__destroyIPN14arrow_vendored4date11leap_secondEEEvT_S6_(ptr noundef %0, ptr noundef %1) #4 comdat align 2 {
entry:
  %.addr = alloca ptr, align 8
  %.addr1 = alloca ptr, align 8
  store ptr %0, ptr %.addr, align 8
  store ptr %1, ptr %.addr1, align 8
  ret void
}

; Function Attrs: mustprogress nounwind uwtable
define linkonce_odr void @_ZNSt12_Vector_baseIN14arrow_vendored4date11leap_secondESaIS2_EE12_Vector_implD2Ev(ptr noundef nonnull align 8 dereferenceable(24) %this) unnamed_addr #4 comdat align 2 {
entry:
  %this.addr = alloca ptr, align 8
  store ptr %this, ptr %this.addr, align 8
  %this1 = load ptr, ptr %this.addr, align 8
  call void @_ZNSaIN14arrow_vendored4date11leap_secondEED2Ev(ptr noundef nonnull align 1 dereferenceable(1) %this1) #3
  ret void
}

; Function Attrs: mustprogress uwtable
define linkonce_odr void @_ZNSt12_Vector_baseIN14arrow_vendored4date11leap_secondESaIS2_EE13_M_deallocateEPS2_m(ptr noundef nonnull align 8 dereferenceable(24) %this, ptr noundef %__p, i64 noundef %__n) #7 comdat align 2 {
entry:
  %this.addr = alloca ptr, align 8
  %__p.addr = alloca ptr, align 8
  %__n.addr = alloca i64, align 8
  store ptr %this, ptr %this.addr, align 8
  store ptr %__p, ptr %__p.addr, align 8
  store i64 %__n, ptr %__n.addr, align 8
  %this1 = load ptr, ptr %this.addr, align 8
  %0 = load ptr, ptr %__p.addr, align 8
  %tobool = icmp ne ptr %0, null
  br i1 %tobool, label %if.then, label %if.end

if.then:                                          ; preds = %entry
  %_M_impl = getelementptr inbounds %"struct.std::_Vector_base.4", ptr %this1, i32 0, i32 0
  %1 = load ptr, ptr %__p.addr, align 8
  %2 = load i64, ptr %__n.addr, align 8
  call void @_ZNSt16allocator_traitsISaIN14arrow_vendored4date11leap_secondEEE10deallocateERS3_PS2_m(ptr noundef nonnull align 1 dereferenceable(1) %_M_impl, ptr noundef %1, i64 noundef %2)
  br label %if.end

if.end:                                           ; preds = %if.then, %entry
  ret void
}

; Function Attrs: mustprogress uwtable
define linkonce_odr void @_ZSt8_DestroyIPN14arrow_vendored4date11leap_secondEEvT_S4_(ptr noundef %__first, ptr noundef %__last) #7 comdat {
entry:
  %__first.addr = alloca ptr, align 8
  %__last.addr = alloca ptr, align 8
  store ptr %__first, ptr %__first.addr, align 8
  store ptr %__last, ptr %__last.addr, align 8
  %0 = load ptr, ptr %__first.addr, align 8
  %1 = load ptr, ptr %__last.addr, align 8
  call void @_ZNSt12_Destroy_auxILb1EE9__destroyIPN14arrow_vendored4date11leap_secondEEEvT_S6_(ptr noundef %0, ptr noundef %1)
  ret void
}

; Function Attrs: noreturn nounwind uwtable
define linkonce_odr hidden void @__clang_call_terminate(ptr noundef %0) #11 comdat {
  %2 = call ptr @__cxa_begin_catch(ptr %0) #3
  call void @_ZSt9terminatev() #19
  unreachable
}

; Function Attrs: mustprogress nounwind uwtable
define linkonce_odr void @_ZNSt12_Vector_baseIN14arrow_vendored4date11leap_secondESaIS2_EED2Ev(ptr noundef nonnull align 8 dereferenceable(24) %this) unnamed_addr #4 comdat align 2 personality ptr @__gxx_personality_v0 {
entry:
  %this.addr = alloca ptr, align 8
  store ptr %this, ptr %this.addr, align 8
  %this1 = load ptr, ptr %this.addr, align 8
  %_M_impl = getelementptr inbounds %"struct.std::_Vector_base.4", ptr %this1, i32 0, i32 0
  %_M_start = getelementptr inbounds %"struct.std::_Vector_base<arrow_vendored::date::leap_second, std::allocator<arrow_vendored::date::leap_second>>::_Vector_impl_data", ptr %_M_impl, i32 0, i32 0
  %0 = load ptr, ptr %_M_start, align 8
  %_M_impl2 = getelementptr inbounds %"struct.std::_Vector_base.4", ptr %this1, i32 0, i32 0
  %_M_end_of_storage = getelementptr inbounds %"struct.std::_Vector_base<arrow_vendored::date::leap_second, std::allocator<arrow_vendored::date::leap_second>>::_Vector_impl_data", ptr %_M_impl2, i32 0, i32 2
  %1 = load ptr, ptr %_M_end_of_storage, align 8
  %_M_impl3 = getelementptr inbounds %"struct.std::_Vector_base.4", ptr %this1, i32 0, i32 0
  %_M_start4 = getelementptr inbounds %"struct.std::_Vector_base<arrow_vendored::date::leap_second, std::allocator<arrow_vendored::date::leap_second>>::_Vector_impl_data", ptr %_M_impl3, i32 0, i32 0
  %2 = load ptr, ptr %_M_start4, align 8
  %sub.ptr.lhs.cast = ptrtoint ptr %1 to i64
  %sub.ptr.rhs.cast = ptrtoint ptr %2 to i64
  %sub.ptr.sub = sub i64 %sub.ptr.lhs.cast, %sub.ptr.rhs.cast
  %sub.ptr.div = sdiv exact i64 %sub.ptr.sub, 8
  invoke void @_ZNSt12_Vector_baseIN14arrow_vendored4date11leap_secondESaIS2_EE13_M_deallocateEPS2_m(ptr noundef nonnull align 8 dereferenceable(24) %this1, ptr noundef %0, i64 noundef %sub.ptr.div)
          to label %invoke.cont unwind label %terminate.lpad

invoke.cont:                                      ; preds = %entry
  %_M_impl5 = getelementptr inbounds %"struct.std::_Vector_base.4", ptr %this1, i32 0, i32 0
  call void @_ZNSt12_Vector_baseIN14arrow_vendored4date11leap_secondESaIS2_EE12_Vector_implD2Ev(ptr noundef nonnull align 8 dereferenceable(24) %_M_impl5) #3
  ret void

terminate.lpad:                                   ; preds = %entry
  %3 = landingpad { ptr, i32 }
          catch ptr null
  %4 = extractvalue { ptr, i32 } %3, 0
  call void @__clang_call_terminate(ptr %4) #19
  unreachable
}

; Function Attrs: mustprogress uwtable
define linkonce_odr void @_ZSt8_DestroyIPN14arrow_vendored4date11leap_secondES2_EvT_S4_RSaIT0_E(ptr noundef %__first, ptr noundef %__last, ptr noundef nonnull align 1 dereferenceable(1) %0) #7 comdat {
entry:
  %__first.addr = alloca ptr, align 8
  %__last.addr = alloca ptr, align 8
  %.addr = alloca ptr, align 8
  store ptr %__first, ptr %__first.addr, align 8
  store ptr %__last, ptr %__last.addr, align 8
  store ptr %0, ptr %.addr, align 8
  %1 = load ptr, ptr %__first.addr, align 8
  %2 = load ptr, ptr %__last.addr, align 8
  call void @_ZSt8_DestroyIPN14arrow_vendored4date11leap_secondEEvT_S4_(ptr noundef %1, ptr noundef %2)
  ret void
}

; Function Attrs: mustprogress nounwind uwtable
define linkonce_odr noundef nonnull align 1 dereferenceable(1) ptr @_ZNSt12_Vector_baseIN14arrow_vendored4date11leap_secondESaIS2_EE19_M_get_Tp_allocatorEv(ptr noundef nonnull align 8 dereferenceable(24) %this) #4 comdat align 2 {
entry:
  %this.addr = alloca ptr, align 8
  store ptr %this, ptr %this.addr, align 8
  %this1 = load ptr, ptr %this.addr, align 8
  %_M_impl = getelementptr inbounds %"struct.std::_Vector_base.4", ptr %this1, i32 0, i32 0
  ret ptr %_M_impl
}

; Function Attrs: mustprogress nounwind uwtable
define linkonce_odr void @_ZNSt6vectorIN14arrow_vendored4date11leap_secondESaIS2_EED2Ev(ptr noundef nonnull align 8 dereferenceable(24) %this) unnamed_addr #4 comdat align 2 personality ptr @__gxx_personality_v0 {
entry:
  %this.addr = alloca ptr, align 8
  store ptr %this, ptr %this.addr, align 8
  %this1 = load ptr, ptr %this.addr, align 8
  %_M_impl = getelementptr inbounds %"struct.std::_Vector_base.4", ptr %this1, i32 0, i32 0
  %_M_start = getelementptr inbounds %"struct.std::_Vector_base<arrow_vendored::date::leap_second, std::allocator<arrow_vendored::date::leap_second>>::_Vector_impl_data", ptr %_M_impl, i32 0, i32 0
  %0 = load ptr, ptr %_M_start, align 8
  %_M_impl2 = getelementptr inbounds %"struct.std::_Vector_base.4", ptr %this1, i32 0, i32 0
  %_M_finish = getelementptr inbounds %"struct.std::_Vector_base<arrow_vendored::date::leap_second, std::allocator<arrow_vendored::date::leap_second>>::_Vector_impl_data", ptr %_M_impl2, i32 0, i32 1
  %1 = load ptr, ptr %_M_finish, align 8
  %call = call noundef nonnull align 1 dereferenceable(1) ptr @_ZNSt12_Vector_baseIN14arrow_vendored4date11leap_secondESaIS2_EE19_M_get_Tp_allocatorEv(ptr noundef nonnull align 8 dereferenceable(24) %this1) #3
  invoke void @_ZSt8_DestroyIPN14arrow_vendored4date11leap_secondES2_EvT_S4_RSaIT0_E(ptr noundef %0, ptr noundef %1, ptr noundef nonnull align 1 dereferenceable(1) %call)
          to label %invoke.cont unwind label %terminate.lpad

invoke.cont:                                      ; preds = %entry
  call void @_ZNSt12_Vector_baseIN14arrow_vendored4date11leap_secondESaIS2_EED2Ev(ptr noundef nonnull align 8 dereferenceable(24) %this1) #3
  ret void

terminate.lpad:                                   ; preds = %entry
  %2 = landingpad { ptr, i32 }
          catch ptr null
  %3 = extractvalue { ptr, i32 } %2, 0
  call void @__clang_call_terminate(ptr %3) #19
  unreachable
}

; Function Attrs: mustprogress nounwind uwtable
define linkonce_odr noundef nonnull align 8 dereferenceable(8) ptr @_ZN14arrow_vendored4date9tzdb_list14const_iteratorppEv(ptr noundef nonnull align 8 dereferenceable(8) %this) #4 comdat align 2 {
entry:
  %this.addr = alloca ptr, align 8
  store ptr %this, ptr %this.addr, align 8
  %this1 = load ptr, ptr %this.addr, align 8
  %p_ = getelementptr inbounds %"class.arrow_vendored::date::tzdb_list::const_iterator", ptr %this1, i32 0, i32 0
  %0 = load ptr, ptr %p_, align 8
  %next = getelementptr inbounds %"struct.arrow_vendored::date::tzdb", ptr %0, i32 0, i32 3
  %1 = load ptr, ptr %next, align 8
  %p_2 = getelementptr inbounds %"class.arrow_vendored::date::tzdb_list::const_iterator", ptr %this1, i32 0, i32 0
  store ptr %1, ptr %p_2, align 8
  ret ptr %this1
}

; Function Attrs: mustprogress nounwind uwtable
define linkonce_odr void @_ZN14arrow_vendored4date4tzdbD2Ev(ptr noundef nonnull align 8 dereferenceable(88) %this) unnamed_addr #4 comdat align 2 {
entry:
  %this.addr = alloca ptr, align 8
  store ptr %this, ptr %this.addr, align 8
  %this1 = load ptr, ptr %this.addr, align 8
  %leap_seconds = getelementptr inbounds %"struct.arrow_vendored::date::tzdb", ptr %this1, i32 0, i32 2
  call void @_ZNSt6vectorIN14arrow_vendored4date11leap_secondESaIS2_EED2Ev(ptr noundef nonnull align 8 dereferenceable(24) %leap_seconds) #3
  %zones = getelementptr inbounds %"struct.arrow_vendored::date::tzdb", ptr %this1, i32 0, i32 1
  call void @_ZNSt6vectorIN14arrow_vendored4date9time_zoneESaIS2_EED2Ev(ptr noundef nonnull align 8 dereferenceable(24) %zones) #3
  %version = getelementptr inbounds %"struct.arrow_vendored::date::tzdb", ptr %this1, i32 0, i32 0
  call void @_ZNSt7__cxx1112basic_stringIcSt11char_traitsIcESaIcEED1Ev(ptr noundef nonnull align 8 dereferenceable(32) %version) #3
  ret void
}

; Function Attrs: mustprogress nounwind uwtable
define ptr @_ZN14arrow_vendored4date9tzdb_list11erase_afterENS1_14const_iteratorE(ptr noundef nonnull align 8 dereferenceable(8) %this, ptr %p.coerce) #4 align 2 {
entry:
  %retval = alloca %"class.arrow_vendored::date::tzdb_list::const_iterator", align 8
  %p = alloca %"class.arrow_vendored::date::tzdb_list::const_iterator", align 8
  %this.addr = alloca ptr, align 8
  %t = alloca ptr, align 8
  %coerce.dive = getelementptr inbounds %"class.arrow_vendored::date::tzdb_list::const_iterator", ptr %p, i32 0, i32 0
  store ptr %p.coerce, ptr %coerce.dive, align 8
  store ptr %this, ptr %this.addr, align 8
  %p_ = getelementptr inbounds %"class.arrow_vendored::date::tzdb_list::const_iterator", ptr %p, i32 0, i32 0
  %0 = load ptr, ptr %p_, align 8
  %next = getelementptr inbounds %"struct.arrow_vendored::date::tzdb", ptr %0, i32 0, i32 3
  %1 = load ptr, ptr %next, align 8
  store ptr %1, ptr %t, align 8
  %p_2 = getelementptr inbounds %"class.arrow_vendored::date::tzdb_list::const_iterator", ptr %p, i32 0, i32 0
  %2 = load ptr, ptr %p_2, align 8
  %next3 = getelementptr inbounds %"struct.arrow_vendored::date::tzdb", ptr %2, i32 0, i32 3
  %3 = load ptr, ptr %next3, align 8
  %next4 = getelementptr inbounds %"struct.arrow_vendored::date::tzdb", ptr %3, i32 0, i32 3
  %4 = load ptr, ptr %next4, align 8
  %p_5 = getelementptr inbounds %"class.arrow_vendored::date::tzdb_list::const_iterator", ptr %p, i32 0, i32 0
  %5 = load ptr, ptr %p_5, align 8
  %next6 = getelementptr inbounds %"struct.arrow_vendored::date::tzdb", ptr %5, i32 0, i32 3
  store ptr %4, ptr %next6, align 8
  %6 = load ptr, ptr %t, align 8
  %isnull = icmp eq ptr %6, null
  br i1 %isnull, label %delete.end, label %delete.notnull

delete.notnull:                                   ; preds = %entry
  call void @_ZN14arrow_vendored4date4tzdbD2Ev(ptr noundef nonnull align 8 dereferenceable(88) %6) #3
  call void @_ZdlPv(ptr noundef %6) #17
  br label %delete.end

delete.end:                                       ; preds = %delete.notnull, %entry
  %call = call noundef nonnull align 8 dereferenceable(8) ptr @_ZN14arrow_vendored4date9tzdb_list14const_iteratorppEv(ptr noundef nonnull align 8 dereferenceable(8) %p) #3
  call void @llvm.memcpy.p0.p0.i64(ptr align 8 %retval, ptr align 8 %call, i64 8, i1 false)
  %coerce.dive7 = getelementptr inbounds %"class.arrow_vendored::date::tzdb_list::const_iterator", ptr %retval, i32 0, i32 0
  %7 = load ptr, ptr %coerce.dive7, align 8
  ret ptr %7
}