; Function Attrs: mustprogress nounwind uwtable
define ptr @_ZN14arrow_vendored4date9tzdb_list11erase_afterENS1_14const_iteratorE(ptr nocapture noundef nonnull readnone align 8 dereferenceable(8) %this, ptr nocapture %p.coerce) local_unnamed_addr #3 align 2 personality ptr @__gxx_personality_v0 {
delete.notnull:
  %next = getelementptr inbounds i8, ptr %p.coerce, i64 80
  %0 = load ptr, ptr %next, align 8
  %next4 = getelementptr inbounds i8, ptr %0, i64 80
  %1 = load ptr, ptr %next4, align 8
  store ptr %1, ptr %next, align 8
  %leap_seconds.i = getelementptr inbounds i8, ptr %0, i64 56
  %2 = load ptr, ptr %leap_seconds.i, align 8
  %tobool.not.i.i.i.i = icmp eq ptr %2, null
  br i1 %tobool.not.i.i.i.i, label %delete.end, label %if.then.i.i.i.i

if.then.i.i.i.i:                                  ; preds = %delete.notnull
  tail call void @_ZdlPv(ptr noundef nonnull %2) #23
  br label %delete.end

delete.end:                                       ; preds = %if.then.i.i.i.i, %delete.notnull
  %zones.i = getelementptr inbounds i8, ptr %0, i64 32
  tail call void @_ZNSt6vectorIN14arrow_vendored4date9time_zoneESaIS2_EED2Ev(ptr noundef nonnull align 8 dereferenceable(24) %zones.i) #24
  tail call void @_ZNSt7__cxx1112basic_stringIcSt11char_traitsIcESaIcEED1Ev(ptr noundef nonnull align 8 dereferenceable(32) %0) #24
  tail call void @_ZdlPv(ptr noundef nonnull %0) #23
  %3 = load ptr, ptr %next, align 8
  ret ptr %3
}